; Function Attrs: mustprogress uwtable
define internal fastcc void @_ZN10open_spiel4json12_GLOBAL__N_110ParseErrorEN4absl7debian211string_viewES4_(ptr %0, i64 %1, ptr %2, i64 %3) unnamed_addr #4 personality ptr @__gxx_personality_v0 {
  %5 = alloca %"class.absl::debian2::string_view", align 8
  %6 = alloca %"class.absl::debian2::string_view", align 8
  %7 = alloca %"class.std::__cxx11::basic_string", align 8
  %8 = alloca i32, align 4
  store ptr %0, ptr %5, align 8
  %.sroa.24.0..sroa_idx = getelementptr inbounds i8, ptr %5, i64 8
  store i64 %1, ptr %.sroa.24.0..sroa_idx, align 8
  %9 = trunc i64 %3 to i32
  %.sroa.speculated = tail call i32 @llvm.smin.i32(i32 %9, i32 30)
  %10 = sext i32 %.sroa.speculated to i64
  %11 = tail call noundef i64 @llvm.umin.i64(i64 %10, i64 %3)
  %12 = icmp sgt i64 %11, -1
  br i1 %12, label %_ZNK4absl7debian211string_view6substrEmm.exit, label %13

13:                                               ; preds = %4
  tail call void @llvm.trap()
  unreachable

_ZNK4absl7debian211string_view6substrEmm.exit:    ; preds = %4
  store ptr %2, ptr %6, align 8
  %14 = getelementptr inbounds nuw i8, ptr %6, i64 8
  store i64 %11, ptr %14, align 8
  %15 = icmp eq i64 %1, %11
  br i1 %15, label %16, label %_ZN4absl7debian2eqENS0_11string_viewES1_.exit.thread9

16:                                               ; preds = %_ZNK4absl7debian211string_view6substrEmm.exit
  %17 = icmp eq i64 %1, 0
  br i1 %17, label %_ZN4absl7debian2eqENS0_11string_viewES1_.exit.thread, label %_ZN4absl7debian2eqENS0_11string_viewES1_.exit

_ZN4absl7debian2eqENS0_11string_viewES1_.exit:    ; preds = %16
  %bcmp.i = tail call i32 @bcmp(ptr %0, ptr %2, i64 %1)
  %18 = icmp eq i32 %bcmp.i, 0
  br i1 %18, label %_ZN4absl7debian2eqENS0_11string_viewES1_.exit.thread, label %_ZN4absl7debian2eqENS0_11string_viewES1_.exit.thread9

_ZN4absl7debian2eqENS0_11string_viewES1_.exit.thread9: ; preds = %_ZNK4absl7debian211string_view6substrEmm.exit, %_ZN4absl7debian2eqENS0_11string_viewES1_.exit
  store i32 68, ptr %8, align 4
  call void @_ZN10open_spiel8internal11SpielStrCatIJRA123_KcRA2_S2_iS6_RA67_S2_RA7_S2_RA4_S2_RN4absl7debian211string_viewERA63_S2_SG_EEENSt7__cxx1112basic_stringIcSt11char_traitsIcESaIcEEEDpOT_(ptr dead_on_unwind nonnull writable sret(%"class.std::__cxx11::basic_string") align 8 %7, ptr noundef nonnull align 1 dereferenceable(123) @.str.24, ptr noundef nonnull align 1 dereferenceable(2) @.str.25, ptr noundef nonnull align 4 dereferenceable(4) %8, ptr noundef nonnull align 1 dereferenceable(2) @.str.3, ptr noundef nonnull align 1 dereferenceable(67) @.str.26, ptr noundef nonnull align 1 dereferenceable(7) @.str.27, ptr noundef nonnull align 1 dereferenceable(4) @.str.28, ptr noundef nonnull align 8 dereferenceable(16) %5, ptr noundef nonnull align 1 dereferenceable(63) @.str.29, ptr noundef nonnull align 8 dereferenceable(16) %6)
  invoke void @_ZN10open_spiel15SpielFatalErrorERKNSt7__cxx1112basic_stringIcSt11char_traitsIcESaIcEEE(ptr noundef nonnull align 8 dereferenceable(32) %7) #23
          to label %19 unwind label %20

19:                                               ; preds = %_ZN4absl7debian2eqENS0_11string_viewES1_.exit.thread9
  unreachable

20:                                               ; preds = %_ZN4absl7debian2eqENS0_11string_viewES1_.exit.thread9
  %21 = landingpad { ptr, i32 }
          cleanup
  call void @_ZNSt7__cxx1112basic_stringIcSt11char_traitsIcESaIcEED1Ev(ptr noundef nonnull align 8 dereferenceable(32) %7) #22
  resume { ptr, i32 } %21

_ZN4absl7debian2eqENS0_11string_viewES1_.exit.thread: ; preds = %16, %_ZN4absl7debian2eqENS0_11string_viewES1_.exit
  ret void
}